; Function Attrs: nounwind uwtable
define dso_local range(i32 0, 2) i32 @ossl_cmp_mock_srv_set1_chainOut(ptr noundef %0, ptr noundef %1) local_unnamed_addr #0 {
  %3 = tail call ptr @OSSL_CMP_SRV_CTX_get0_custom_ctx(ptr noundef %0) #4
  %4 = icmp eq ptr %3, null
  br i1 %4, label %5, label %6

5:                                                ; preds = %2
  tail call void @ERR_new() #4
  tail call void @ERR_set_debug(ptr noundef nonnull @.str, i32 noundef 129, ptr noundef nonnull @__func__.ossl_cmp_mock_srv_set1_chainOut) #4
  tail call void (i32, i32, ptr, ...) @ERR_set_error(i32 noundef 58, i32 noundef 103, ptr noundef null) #4
  br label %13

6:                                                ; preds = %2
  %.not = icmp eq ptr %1, null
  br i1 %.not, label %10, label %7

7:                                                ; preds = %6
  %8 = tail call ptr @X509_chain_up_ref(ptr noundef nonnull %1) #4
  %9 = icmp eq ptr %8, null
  br i1 %9, label %13, label %10

10:                                               ; preds = %7, %6
  %.0 = phi ptr [ %8, %7 ], [ null, %6 ]
  %11 = getelementptr inbounds nuw i8, ptr %3, i64 32
  %12 = load ptr, ptr %11, align 8, !tbaa !19
  tail call void @OSSL_STACK_OF_X509_free(ptr noundef %12) #4
  store ptr %.0, ptr %11, align 8, !tbaa !19
  br label %13

13:                                               ; preds = %7, %10, %5
  %.07 = phi i32 [ 0, %5 ], [ 1, %10 ], [ 0, %7 ]
  ret i32 %.07
}